target datalayout = "e-m:e-p270:32:32-p271:32:32-p272:64:64-i64:64-i128:128-f80:128-n8:16:32:64-S128"
target triple = "x86_64-pc-linux-gnu"

%"class.cv::utils::trace::details::Region" = type <{ ptr, i32, [4 x i8] }>
%"struct.cv::cpu_baseline::NormInf_SIMD" = type { i8 }

; Function Attrs: inlinehint mustprogress nounwind uwtable
define linkonce_odr hidden noundef i32 @_ZN2cv6cv_absEh(i8 noundef zeroext %0) #3 comdat {
  %2 = alloca i8, align 1
  store i8 %0, ptr %2, align 1, !tbaa !24
  %3 = load i8, ptr %2, align 1, !tbaa !24
  %4 = zext i8 %3 to i32
  ret i32 %4
}

; Function Attrs: inlinehint mustprogress nounwind uwtable
define linkonce_odr noundef nonnull align 4 dereferenceable(4) ptr @_ZSt3maxIiERKT_S2_S2_(ptr noundef nonnull align 4 dereferenceable(4) %0, ptr noundef nonnull align 4 dereferenceable(4) %1) #3 comdat {
  %3 = alloca ptr, align 8
  %4 = alloca ptr, align 8
  %5 = alloca ptr, align 8
  store ptr %0, ptr %4, align 8, !tbaa !11
  store ptr %1, ptr %5, align 8, !tbaa !11
  %6 = load ptr, ptr %4, align 8, !tbaa !11
  %7 = load i32, ptr %6, align 4, !tbaa !3
  %8 = load ptr, ptr %5, align 8, !tbaa !11
  %9 = load i32, ptr %8, align 4, !tbaa !3
  %10 = icmp slt i32 %7, %9
  br i1 %10, label %11, label %13

11:                                               ; preds = %2
  %12 = load ptr, ptr %5, align 8, !tbaa !11
  store ptr %12, ptr %3, align 8
  br label %15

13:                                               ; preds = %2
  %14 = load ptr, ptr %4, align 8, !tbaa !11
  store ptr %14, ptr %3, align 8
  br label %15

15:                                               ; preds = %13, %11
  %16 = load ptr, ptr %3, align 8
  ret ptr %16
}

; Function Attrs: inlinehint mustprogress uwtable
define linkonce_odr hidden noundef i32 @_ZNK2cv12cpu_baseline12NormInf_SIMDIhiEclEPKhi(ptr noundef nonnull align 1 dereferenceable(1) %0, ptr noundef %1, i32 noundef %2) #7 comdat align 2 {
  %4 = alloca ptr, align 8
  %5 = alloca ptr, align 8
  %6 = alloca i32, align 4
  %7 = alloca i32, align 4
  %8 = alloca i32, align 4
  %9 = alloca i32, align 4
  store ptr %0, ptr %4, align 8, !tbaa !93
  store ptr %1, ptr %5, align 8, !tbaa !9
  store i32 %2, ptr %6, align 4, !tbaa !3
  call void @llvm.lifetime.start.p0(i64 4, ptr %7) #15
  store i32 0, ptr %7, align 4, !tbaa !3
  call void @llvm.lifetime.start.p0(i64 4, ptr %8) #15
  store i32 0, ptr %8, align 4, !tbaa !3
  br label %10

10:                                               ; preds = %24, %3
  %11 = load i32, ptr %8, align 4, !tbaa !3
  %12 = load i32, ptr %6, align 4, !tbaa !3
  %13 = icmp slt i32 %11, %12
  br i1 %13, label %15, label %14

14:                                               ; preds = %10
  call void @llvm.lifetime.end.p0(i64 4, ptr %8) #15
  br label %27

15:                                               ; preds = %10
  call void @llvm.lifetime.start.p0(i64 4, ptr %9) #15
  %16 = load ptr, ptr %5, align 8, !tbaa !9
  %17 = load i32, ptr %8, align 4, !tbaa !3
  %18 = sext i32 %17 to i64
  %19 = getelementptr inbounds i8, ptr %16, i64 %18
  %20 = load i8, ptr %19, align 1, !tbaa !24
  %21 = call noundef i32 @_ZN2cv6cv_absEh(i8 noundef zeroext %20)
  store i32 %21, ptr %9, align 4, !tbaa !3
  %22 = call noundef nonnull align 4 dereferenceable(4) ptr @_ZSt3maxIiERKT_S2_S2_(ptr noundef nonnull align 4 dereferenceable(4) %7, ptr noundef nonnull align 4 dereferenceable(4) %9)
  %23 = load i32, ptr %22, align 4, !tbaa !3
  store i32 %23, ptr %7, align 4, !tbaa !3
  call void @llvm.lifetime.end.p0(i64 4, ptr %9) #15
  br label %24

24:                                               ; preds = %15
  %25 = load i32, ptr %8, align 4, !tbaa !3
  %26 = add nsw i32 %25, 1
  store i32 %26, ptr %8, align 4, !tbaa !3
  br label %10, !llvm.loop !95

27:                                               ; preds = %14
  %28 = load i32, ptr %7, align 4, !tbaa !3
  call void @llvm.lifetime.end.p0(i64 4, ptr %7) #15
  ret i32 %28
}

; Function Attrs: inlinehint mustprogress nounwind uwtable
define linkonce_odr hidden void @_ZN2cv5utils5trace7details6RegionD2Ev(ptr noundef nonnull align 8 dereferenceable(12) %0) unnamed_addr #3 comdat align 2 personality ptr @__gxx_personality_v0 {
  %2 = alloca ptr, align 8
  store ptr %0, ptr %2, align 8, !tbaa !19
  %3 = load ptr, ptr %2, align 8
  %4 = getelementptr inbounds nuw %"class.cv::utils::trace::details::Region", ptr %3, i32 0, i32 1
  %5 = load i32, ptr %4, align 8, !tbaa !21
  %6 = icmp ne i32 %5, 0
  br i1 %6, label %7, label %9

7:                                                ; preds = %1
  invoke void @_ZN2cv5utils5trace7details6Region7destroyEv(ptr noundef nonnull align 8 dereferenceable(12) %3)
          to label %8 unwind label %10

8:                                                ; preds = %7
  br label %9

9:                                                ; preds = %8, %1
  ret void

10:                                               ; preds = %7
  %11 = landingpad { ptr, i32 }
          catch ptr null
  %12 = extractvalue { ptr, i32 } %11, 0
  call void @__clang_call_terminate(ptr %12) #16
  unreachable
}

; Function Attrs: mustprogress uwtable
define linkonce_odr hidden noundef i32 @_ZN2cv12cpu_baseline8normInf_IhiEEiPKT_PKhPT0_ii(ptr noundef %0, ptr noundef %1, ptr noundef %2, i32 noundef %3, i32 noundef %4) #0 comdat {
  %6 = alloca ptr, align 8
  %7 = alloca ptr, align 8
  %8 = alloca ptr, align 8
  %9 = alloca i32, align 4
  %10 = alloca i32, align 4
  %11 = alloca i32, align 4
  %12 = alloca %"struct.cv::cpu_baseline::NormInf_SIMD", align 1
  %13 = alloca i32, align 4
  %14 = alloca i32, align 4
  %15 = alloca i32, align 4
  %16 = alloca i32, align 4
  %17 = alloca i32, align 4
  store ptr %0, ptr %6, align 8, !tbaa !9
  store ptr %1, ptr %7, align 8, !tbaa !9
  store ptr %2, ptr %8, align 8, !tbaa !11
  store i32 %3, ptr %9, align 4, !tbaa !3
  store i32 %4, ptr %10, align 4, !tbaa !3
  call void @llvm.lifetime.start.p0(i64 4, ptr %11) #15
  %18 = load ptr, ptr %8, align 8, !tbaa !11
  %19 = load i32, ptr %18, align 4, !tbaa !3
  store i32 %19, ptr %11, align 4, !tbaa !3
  %20 = load ptr, ptr %7, align 8, !tbaa !9
  %21 = icmp ne ptr %20, null
  br i1 %21, label %30, label %22

22:                                               ; preds = %5
  call void @llvm.lifetime.start.p0(i64 1, ptr %12) #15
  call void @llvm.lifetime.start.p0(i64 4, ptr %13) #15
  %23 = load ptr, ptr %6, align 8, !tbaa !9
  %24 = load i32, ptr %9, align 4, !tbaa !3
  %25 = load i32, ptr %10, align 4, !tbaa !3
  %26 = mul nsw i32 %24, %25
  %27 = call noundef i32 @_ZNK2cv12cpu_baseline12NormInf_SIMDIhiEclEPKhi(ptr noundef nonnull align 1 dereferenceable(1) %12, ptr noundef %23, i32 noundef %26)
  store i32 %27, ptr %13, align 4, !tbaa !3
  %28 = call noundef nonnull align 4 dereferenceable(4) ptr @_ZSt3maxIiERKT_S2_S2_(ptr noundef nonnull align 4 dereferenceable(4) %11, ptr noundef nonnull align 4 dereferenceable(4) %13)
  %29 = load i32, ptr %28, align 4, !tbaa !3
  store i32 %29, ptr %11, align 4, !tbaa !3
  call void @llvm.lifetime.end.p0(i64 4, ptr %13) #15
  call void @llvm.lifetime.end.p0(i64 1, ptr %12) #15
  br label %71

30:                                               ; preds = %5
  call void @llvm.lifetime.start.p0(i64 4, ptr %14) #15
  store i32 0, ptr %14, align 4, !tbaa !3
  br label %31

31:                                               ; preds = %63, %30
  %32 = load i32, ptr %14, align 4, !tbaa !3
  %33 = load i32, ptr %9, align 4, !tbaa !3
  %34 = icmp slt i32 %32, %33
  br i1 %34, label %36, label %35

35:                                               ; preds = %31
  store i32 2, ptr %15, align 4
  call void @llvm.lifetime.end.p0(i64 4, ptr %14) #15
  br label %70

36:                                               ; preds = %31
  %37 = load ptr, ptr %7, align 8, !tbaa !9
  %38 = load i32, ptr %14, align 4, !tbaa !3
  %39 = sext i32 %38 to i64
  %40 = getelementptr inbounds i8, ptr %37, i64 %39
  %41 = load i8, ptr %40, align 1, !tbaa !24
  %42 = icmp ne i8 %41, 0
  br i1 %42, label %43, label %62

43:                                               ; preds = %36
  call void @llvm.lifetime.start.p0(i64 4, ptr %16) #15
  store i32 0, ptr %16, align 4, !tbaa !3
  br label %44

44:                                               ; preds = %58, %43
  %45 = load i32, ptr %16, align 4, !tbaa !3
  %46 = load i32, ptr %10, align 4, !tbaa !3
  %47 = icmp slt i32 %45, %46
  br i1 %47, label %49, label %48

48:                                               ; preds = %44
  store i32 5, ptr %15, align 4
  call void @llvm.lifetime.end.p0(i64 4, ptr %16) #15
  br label %61

49:                                               ; preds = %44
  call void @llvm.lifetime.start.p0(i64 4, ptr %17) #15
  %50 = load ptr, ptr %6, align 8, !tbaa !9
  %51 = load i32, ptr %16, align 4, !tbaa !3
  %52 = sext i32 %51 to i64
  %53 = getelementptr inbounds i8, ptr %50, i64 %52
  %54 = load i8, ptr %53, align 1, !tbaa !24
  %55 = call noundef i32 @_ZN2cv6cv_absEh(i8 noundef zeroext %54)
  store i32 %55, ptr %17, align 4, !tbaa !3
  %56 = call noundef nonnull align 4 dereferenceable(4) ptr @_ZSt3maxIiERKT_S2_S2_(ptr noundef nonnull align 4 dereferenceable(4) %11, ptr noundef nonnull align 4 dereferenceable(4) %17)
  %57 = load i32, ptr %56, align 4, !tbaa !3
  store i32 %57, ptr %11, align 4, !tbaa !3
  call void @llvm.lifetime.end.p0(i64 4, ptr %17) #15
  br label %58

58:                                               ; preds = %49
  %59 = load i32, ptr %16, align 4, !tbaa !3
  %60 = add nsw i32 %59, 1
  store i32 %60, ptr %16, align 4, !tbaa !3
  br label %44, !llvm.loop !91

61:                                               ; preds = %48
  br label %62

62:                                               ; preds = %61, %36
  br label %63

63:                                               ; preds = %62
  %64 = load i32, ptr %14, align 4, !tbaa !3
  %65 = add nsw i32 %64, 1
  store i32 %65, ptr %14, align 4, !tbaa !3
  %66 = load i32, ptr %10, align 4, !tbaa !3
  %67 = load ptr, ptr %6, align 8, !tbaa !9
  %68 = sext i32 %66 to i64
  %69 = getelementptr inbounds i8, ptr %67, i64 %68
  store ptr %69, ptr %6, align 8, !tbaa !9
  br label %31, !llvm.loop !92

70:                                               ; preds = %35
  br label %71

71:                                               ; preds = %70, %22
  %72 = load i32, ptr %11, align 4, !tbaa !3
  %73 = load ptr, ptr %8, align 8, !tbaa !11
  store i32 %72, ptr %73, align 4, !tbaa !3
  store i32 1, ptr %15, align 4
  call void @llvm.lifetime.end.p0(i64 4, ptr %11) #15
  ret i32 0
}

; Function Attrs: mustprogress uwtable
define internal noundef i32 @_ZN2cv12cpu_baselineL10normInf_8uEPKhS2_Piii(ptr noundef %0, ptr noundef %1, ptr noundef %2, i32 noundef %3, i32 noundef %4) #0 personality ptr @__gxx_personality_v0 {
  %6 = alloca ptr, align 8
  %7 = alloca ptr, align 8
  %8 = alloca ptr, align 8
  %9 = alloca i32, align 4
  %10 = alloca i32, align 4
  %11 = alloca %"class.cv::utils::trace::details::Region", align 8
  %12 = alloca ptr, align 8
  %13 = alloca i32, align 4
  store ptr %0, ptr %6, align 8, !tbaa !9
  store ptr %1, ptr %7, align 8, !tbaa !9
  store ptr %2, ptr %8, align 8, !tbaa !11
  store i32 %3, ptr %9, align 4, !tbaa !3
  store i32 %4, ptr %10, align 4, !tbaa !3
  call void @llvm.lifetime.start.p0(i64 16, ptr %11) #15
  call void @_ZN2cv5utils5trace7details6RegionC1ERKNS3_21LocationStaticStorageE(ptr noundef nonnull align 8 dereferenceable(12) %11, ptr noundef nonnull align 8 dereferenceable(32) @_ZZN2cv12cpu_baselineL10normInf_8uEPKhS2_PiiiE25__cv_trace_location_fn642)
  %14 = load ptr, ptr %6, align 8, !tbaa !9
  %15 = load ptr, ptr %7, align 8, !tbaa !9
  %16 = load ptr, ptr %8, align 8, !tbaa !11
  %17 = load i32, ptr %9, align 4, !tbaa !3
  %18 = load i32, ptr %10, align 4, !tbaa !3
  %19 = invoke noundef i32 @_ZN2cv12cpu_baseline8normInf_IhiEEiPKT_PKhPT0_ii(ptr noundef %14, ptr noundef %15, ptr noundef %16, i32 noundef %17, i32 noundef %18)
          to label %20 unwind label %21

20:                                               ; preds = %5
  call void @_ZN2cv5utils5trace7details6RegionD2Ev(ptr noundef nonnull align 8 dereferenceable(12) %11) #15
  call void @llvm.lifetime.end.p0(i64 16, ptr %11) #15
  ret i32 %19

21:                                               ; preds = %5
  %22 = landingpad { ptr, i32 }
          cleanup
  %23 = extractvalue { ptr, i32 } %22, 0
  store ptr %23, ptr %12, align 8
  %24 = extractvalue { ptr, i32 } %22, 1
  store i32 %24, ptr %13, align 4
  call void @_ZN2cv5utils5trace7details6RegionD2Ev(ptr noundef nonnull align 8 dereferenceable(12) %11) #15
  call void @llvm.lifetime.end.p0(i64 16, ptr %11) #15
  br label %25

25:                                               ; preds = %21
  %26 = load ptr, ptr %12, align 8
  %27 = load i32, ptr %13, align 4
  %28 = insertvalue { ptr, i32 } poison, ptr %26, 0
  %29 = insertvalue { ptr, i32 } %28, i32 %27, 1
  resume { ptr, i32 } %29
}