; Function Attrs: mustprogress uwtable
define internal noundef i32 @_ZN2cv12cpu_baselineL10normInf_8uEPKhS2_Piii(ptr noundef readonly captures(none) %0, ptr noundef readonly %1, ptr noundef captures(none) %2, i32 noundef %3, i32 noundef %4) #0 personality ptr @__gxx_personality_v0 {
  %6 = alloca %"class.cv::utils::trace::details::Region", align 8
  call void @llvm.lifetime.start.p0(i64 16, ptr nonnull %6) #17
  call void @_ZN2cv5utils5trace7details6RegionC1ERKNS3_21LocationStaticStorageE(ptr noundef nonnull align 8 dereferenceable(12) %6, ptr noundef nonnull align 8 dereferenceable(32) @_ZZN2cv12cpu_baselineL10normInf_8uEPKhS2_PiiiE25__cv_trace_location_fn642)
  %7 = load i32, ptr %2, align 4, !tbaa !11
  %.not.i = icmp eq ptr %1, null
  br i1 %.not.i, label %17, label %.preheader33.i

.preheader33.i:                                   ; preds = %5
  %8 = icmp sgt i32 %3, 0
  br i1 %8, label %.lr.ph40.i, label %.loopexit

.lr.ph40.i:                                       ; preds = %.preheader33.i
  %9 = icmp sgt i32 %4, 0
  %10 = sext i32 %4 to i64
  br i1 %9, label %.lr.ph40.split.us.preheader.i, label %.loopexit

.lr.ph40.split.us.preheader.i:                    ; preds = %.lr.ph40.i
  %wide.trip.count47.i = zext nneg i32 %3 to i64
  %wide.trip.count.i = zext nneg i32 %4 to i64
  br label %.lr.ph40.split.us.i

.lr.ph40.split.us.i:                              ; preds = %..loopexit_crit_edge.us.i, %.lr.ph40.split.us.preheader.i
  %indvars.iv44.i = phi i64 [ 0, %.lr.ph40.split.us.preheader.i ], [ %indvars.iv.next45.i, %..loopexit_crit_edge.us.i ]
  %.01838.us.i = phi ptr [ %0, %.lr.ph40.split.us.preheader.i ], [ %16, %..loopexit_crit_edge.us.i ]
  %.137.us.i = phi i32 [ %7, %.lr.ph40.split.us.preheader.i ], [ %.3.us.i, %..loopexit_crit_edge.us.i ]
  %11 = getelementptr inbounds nuw i8, ptr %1, i64 %indvars.iv44.i
  %12 = load i8, ptr %11, align 1, !tbaa !12
  %.not20.us.i = icmp eq i8 %12, 0
  br i1 %.not20.us.i, label %..loopexit_crit_edge.us.i, label %.preheader.us.i

.preheader.us.i:                                  ; preds = %.lr.ph40.split.us.i, %.preheader.us.i
  %indvars.iv.i = phi i64 [ %indvars.iv.next.i, %.preheader.us.i ], [ 0, %.lr.ph40.split.us.i ]
  %.235.us.i = phi i32 [ %.sroa.speculated.us.i, %.preheader.us.i ], [ %.137.us.i, %.lr.ph40.split.us.i ]
  %13 = getelementptr inbounds nuw i8, ptr %.01838.us.i, i64 %indvars.iv.i
  %14 = load i8, ptr %13, align 1, !tbaa !12
  %15 = zext i8 %14 to i32
  %.sroa.speculated.us.i = call i32 @llvm.smax.i32(i32 %.235.us.i, i32 %15)
  %indvars.iv.next.i = add nuw nsw i64 %indvars.iv.i, 1
  %exitcond.not.i = icmp eq i64 %indvars.iv.next.i, %wide.trip.count.i
  br i1 %exitcond.not.i, label %..loopexit_crit_edge.us.i, label %.preheader.us.i, !llvm.loop !13

..loopexit_crit_edge.us.i:                        ; preds = %.preheader.us.i, %.lr.ph40.split.us.i
  %.3.us.i = phi i32 [ %.137.us.i, %.lr.ph40.split.us.i ], [ %.sroa.speculated.us.i, %.preheader.us.i ]
  %indvars.iv.next45.i = add nuw nsw i64 %indvars.iv44.i, 1
  %16 = getelementptr inbounds nuw i8, ptr %.01838.us.i, i64 %10
  %exitcond48.not.i = icmp eq i64 %indvars.iv.next45.i, %wide.trip.count47.i
  br i1 %exitcond48.not.i, label %.loopexit, label %.lr.ph40.split.us.i, !llvm.loop !15

17:                                               ; preds = %5
  %18 = mul nsw i32 %4, %3
  %19 = icmp sgt i32 %18, 0
  br i1 %19, label %.lr.ph.preheader.i.i, label %_ZNK2cv12cpu_baseline12NormInf_SIMDIhiEclEPKhi.exit.i

.lr.ph.preheader.i.i:                             ; preds = %17
  %wide.trip.count.i.i = zext nneg i32 %18 to i64
  br label %.lr.ph.i.i

.lr.ph.i.i:                                       ; preds = %.lr.ph.i.i, %.lr.ph.preheader.i.i
  %indvars.iv.i.i = phi i64 [ 0, %.lr.ph.preheader.i.i ], [ %indvars.iv.next.i.i, %.lr.ph.i.i ]
  %.089.i.i = phi i32 [ 0, %.lr.ph.preheader.i.i ], [ %.sroa.speculated.i.i, %.lr.ph.i.i ]
  %20 = getelementptr inbounds nuw i8, ptr %0, i64 %indvars.iv.i.i
  %21 = load i8, ptr %20, align 1, !tbaa !12
  %22 = zext i8 %21 to i32
  %.sroa.speculated.i.i = call i32 @llvm.umax.i32(i32 %.089.i.i, i32 %22)
  %indvars.iv.next.i.i = add nuw nsw i64 %indvars.iv.i.i, 1
  %exitcond.not.i.i = icmp eq i64 %indvars.iv.next.i.i, %wide.trip.count.i.i
  br i1 %exitcond.not.i.i, label %_ZNK2cv12cpu_baseline12NormInf_SIMDIhiEclEPKhi.exit.i, label %.lr.ph.i.i, !llvm.loop !16

_ZNK2cv12cpu_baseline12NormInf_SIMDIhiEclEPKhi.exit.i: ; preds = %.lr.ph.i.i, %17
  %.08.lcssa.i.i = phi i32 [ 0, %17 ], [ %.sroa.speculated.i.i, %.lr.ph.i.i ]
  %.sroa.speculated24.i = call i32 @llvm.smax.i32(i32 %7, i32 %.08.lcssa.i.i)
  br label %.loopexit

.loopexit:                                        ; preds = %..loopexit_crit_edge.us.i, %_ZNK2cv12cpu_baseline12NormInf_SIMDIhiEclEPKhi.exit.i, %.lr.ph40.i, %.preheader33.i
  %.032.i = phi i32 [ %.sroa.speculated24.i, %_ZNK2cv12cpu_baseline12NormInf_SIMDIhiEclEPKhi.exit.i ], [ %7, %.preheader33.i ], [ %7, %.lr.ph40.i ], [ %.3.us.i, %..loopexit_crit_edge.us.i ]
  store i32 %.032.i, ptr %2, align 4, !tbaa !11
  %23 = getelementptr inbounds nuw i8, ptr %6, i64 8
  %24 = load i32, ptr %23, align 8, !tbaa !7
  %.not.i6 = icmp eq i32 %24, 0
  br i1 %.not.i6, label %_ZN2cv5utils5trace7details6RegionD2Ev.exit, label %25

25:                                               ; preds = %.loopexit
  invoke void @_ZN2cv5utils5trace7details6Region7destroyEv(ptr noundef nonnull align 8 dereferenceable(12) %6)
          to label %_ZN2cv5utils5trace7details6RegionD2Ev.exit unwind label %26

26:                                               ; preds = %25
  %27 = landingpad { ptr, i32 }
          catch ptr null
  %28 = extractvalue { ptr, i32 } %27, 0
  call void @__clang_call_terminate(ptr %28) #18
  unreachable

_ZN2cv5utils5trace7details6RegionD2Ev.exit:       ; preds = %.loopexit, %25
  call void @llvm.lifetime.end.p0(i64 16, ptr nonnull %6) #17
  ret i32 0
}